; ModuleID = '5/872.c'
source_filename = "5/872.c"
target datalayout = "e-m:e-p270:32:32-p271:32:32-p272:64:64-i64:64-f80:128-n8:16:32:64-S128"
target triple = "x86_64-pc-linux-gnu"

@.str = private unnamed_addr constant [4 x i8] c"%lf\00", align 1
@.str.1 = private unnamed_addr constant [5 x i8] c"%s%s\00", align 1
@.str.2 = private unnamed_addr constant [6 x i8] c"error\00", align 1
@.str.3 = private unnamed_addr constant [4 x i8] c"yes\00", align 1
@.str.4 = private unnamed_addr constant [3 x i8] c"no\00", align 1

; Function Attrs: noinline nounwind uwtable
define dso_local i32 @main() #0 {
  %1 = alloca i32, align 4
  %2 = alloca double, align 8
  %3 = alloca double, align 8
  %4 = alloca double, align 8
  %5 = alloca double, align 8
  %6 = alloca double, align 8
  %7 = alloca i32, align 4
  %8 = alloca i32, align 4
  %9 = alloca [501 x i8], align 16
  %10 = alloca [501 x i8], align 16
  store i32 0, i32* %1, align 4
  store double 0.000000e+00, double* %3, align 8
  store i32 0, i32* %8, align 4
  %11 = call i32 (i8*, ...) @__isoc99_scanf(i8* getelementptr inbounds ([4 x i8], [4 x i8]* @.str, i64 0, i64 0), double* %2)
  %12 = getelementptr inbounds [501 x i8], [501 x i8]* %9, i64 0, i64 0
  %13 = getelementptr inbounds [501 x i8], [501 x i8]* %10, i64 0, i64 0
  %14 = call i32 (i8*, ...) @__isoc99_scanf(i8* getelementptr inbounds ([5 x i8], [5 x i8]* @.str.1, i64 0, i64 0), i8* %12, i8* %13)
  %15 = getelementptr inbounds [501 x i8], [501 x i8]* %9, i64 0, i64 0
  %16 = call i64 @strlen(i8* %15) #3
  %17 = uitofp i64 %16 to double
  store double %17, double* %5, align 8
  %18 = getelementptr inbounds [501 x i8], [501 x i8]* %10, i64 0, i64 0
  %19 = call i64 @strlen(i8* %18) #3
  %20 = uitofp i64 %19 to double
  store double %20, double* %6, align 8
  %21 = load double, double* %5, align 8
  %22 = load double, double* %6, align 8
  %23 = fcmp une double %21, %22
  br i1 %23, label %24, label %26

24:                                               ; preds = %0
  %25 = call i32 (i8*, ...) @printf(i8* getelementptr inbounds ([6 x i8], [6 x i8]* @.str.2, i64 0, i64 0))
  br label %129

26:                                               ; preds = %0
  store i32 0, i32* %7, align 4
  br label %27

27:                                               ; preds = %108, %26
  %28 = load i32, i32* %7, align 4
  %29 = sitofp i32 %28 to double
  %30 = load double, double* %5, align 8
  %31 = fcmp olt double %29, %30
  br i1 %31, label %32, label %111

32:                                               ; preds = %27
  %33 = load i32, i32* %7, align 4
  %34 = sext i32 %33 to i64
  %35 = getelementptr inbounds [501 x i8], [501 x i8]* %9, i64 0, i64 %34
  %36 = load i8, i8* %35, align 1
  %37 = sext i8 %36 to i32
  %38 = icmp eq i32 %37, 65
  br i1 %38, label %60, label %39

39:                                               ; preds = %32
  %40 = load i32, i32* %7, align 4
  %41 = sext i32 %40 to i64
  %42 = getelementptr inbounds [501 x i8], [501 x i8]* %9, i64 0, i64 %41
  %43 = load i8, i8* %42, align 1
  %44 = sext i8 %43 to i32
  %45 = icmp eq i32 %44, 84
  br i1 %45, label %60, label %46

46:                                               ; preds = %39
  %47 = load i32, i32* %7, align 4
  %48 = sext i32 %47 to i64
  %49 = getelementptr inbounds [501 x i8], [501 x i8]* %9, i64 0, i64 %48
  %50 = load i8, i8* %49, align 1
  %51 = sext i8 %50 to i32
  %52 = icmp eq i32 %51, 67
  br i1 %52, label %60, label %53

53:                                               ; preds = %46
  %54 = load i32, i32* %7, align 4
  %55 = sext i32 %54 to i64
  %56 = getelementptr inbounds [501 x i8], [501 x i8]* %9, i64 0, i64 %55
  %57 = load i8, i8* %56, align 1
  %58 = sext i8 %57 to i32
  %59 = icmp eq i32 %58, 71
  br i1 %59, label %60, label %104

60:                                               ; preds = %53, %46, %39, %32
  %61 = load i32, i32* %7, align 4
  %62 = sext i32 %61 to i64
  %63 = getelementptr inbounds [501 x i8], [501 x i8]* %10, i64 0, i64 %62
  %64 = load i8, i8* %63, align 1
  %65 = sext i8 %64 to i32
  %66 = icmp eq i32 %65, 65
  br i1 %66, label %88, label %67

67:                                               ; preds = %60
  %68 = load i32, i32* %7, align 4
  %69 = sext i32 %68 to i64
  %70 = getelementptr inbounds [501 x i8], [501 x i8]* %10, i64 0, i64 %69
  %71 = load i8, i8* %70, align 1
  %72 = sext i8 %71 to i32
  %73 = icmp eq i32 %72, 84
  br i1 %73, label %88, label %74

74:                                               ; preds = %67
  %75 = load i32, i32* %7, align 4
  %76 = sext i32 %75 to i64
  %77 = getelementptr inbounds [501 x i8], [501 x i8]* %10, i64 0, i64 %76
  %78 = load i8, i8* %77, align 1
  %79 = sext i8 %78 to i32
  %80 = icmp eq i32 %79, 67
  br i1 %80, label %88, label %81

81:                                               ; preds = %74
  %82 = load i32, i32* %7, align 4
  %83 = sext i32 %82 to i64
  %84 = getelementptr inbounds [501 x i8], [501 x i8]* %10, i64 0, i64 %83
  %85 = load i8, i8* %84, align 1
  %86 = sext i8 %85 to i32
  %87 = icmp eq i32 %86, 71
  br i1 %87, label %88, label %104

88:                                               ; preds = %81, %74, %67, %60
  %89 = load i32, i32* %7, align 4
  %90 = sext i32 %89 to i64
  %91 = getelementptr inbounds [501 x i8], [501 x i8]* %9, i64 0, i64 %90
  %92 = load i8, i8* %91, align 1
  %93 = sext i8 %92 to i32
  %94 = load i32, i32* %7, align 4
  %95 = sext i32 %94 to i64
  %96 = getelementptr inbounds [501 x i8], [501 x i8]* %10, i64 0, i64 %95
  %97 = load i8, i8* %96, align 1
  %98 = sext i8 %97 to i32
  %99 = icmp eq i32 %93, %98
  br i1 %99, label %100, label %103

100:                                              ; preds = %88
  %101 = load double, double* %3, align 8
  %102 = fadd double %101, 1.000000e+00
  store double %102, double* %3, align 8
  br label %103

103:                                              ; preds = %100, %88
  br label %107

104:                                              ; preds = %81, %53
  %105 = load i32, i32* %8, align 4
  %106 = add nsw i32 %105, 1
  store i32 %106, i32* %8, align 4
  br label %107

107:                                              ; preds = %104, %103
  br label %108

108:                                              ; preds = %107
  %109 = load i32, i32* %7, align 4
  %110 = add nsw i32 %109, 1
  store i32 %110, i32* %7, align 4
  br label %27

111:                                              ; preds = %27
  %112 = load double, double* %3, align 8
  %113 = load double, double* %5, align 8
  %114 = fdiv double %112, %113
  store double %114, double* %4, align 8
  %115 = load i32, i32* %8, align 4
  %116 = icmp sgt i32 %115, 0
  br i1 %116, label %117, label %119

117:                                              ; preds = %111
  %118 = call i32 (i8*, ...) @printf(i8* getelementptr inbounds ([6 x i8], [6 x i8]* @.str.2, i64 0, i64 0))
  br label %128

119:                                              ; preds = %111
  %120 = load double, double* %4, align 8
  %121 = load double, double* %2, align 8
  %122 = fcmp ogt double %120, %121
  br i1 %122, label %123, label %125

123:                                              ; preds = %119
  %124 = call i32 (i8*, ...) @printf(i8* getelementptr inbounds ([4 x i8], [4 x i8]* @.str.3, i64 0, i64 0))
  br label %127

125:                                              ; preds = %119
  %126 = call i32 (i8*, ...) @printf(i8* getelementptr inbounds ([3 x i8], [3 x i8]* @.str.4, i64 0, i64 0))
  br label %127

127:                                              ; preds = %125, %123
  br label %128

128:                                              ; preds = %127, %117
  br label %129

129:                                              ; preds = %128, %24
  ret i32 0
}

declare dso_local i32 @__isoc99_scanf(i8*, ...) #1

; Function Attrs: nounwind readonly
declare dso_local i64 @strlen(i8*) #2

declare dso_local i32 @printf(i8*, ...) #1


!llvm.module.flags = !{!0}
!llvm.ident = !{!1}

!0 = !{i32 1, !"wchar_size", i32 4}
!1 = !{!"clang version 10.0.0-4ubuntu1 "}
