; ModuleID = 'source-C-CXX/4/872.c'
source_filename = "source-C-CXX/4/872.c"
target datalayout = "e-m:e-p270:32:32-p271:32:32-p272:64:64-i64:64-f80:128-n8:16:32:64-S128"
target triple = "x86_64-pc-linux-gnu"

@.str = private unnamed_addr constant [4 x i8] c"%lf\00", align 1
@.str.1 = private unnamed_addr constant [5 x i8] c"%s%s\00", align 1
@.str.2 = private unnamed_addr constant [6 x i8] c"error\00", align 1
@.str.3 = private unnamed_addr constant [4 x i8] c"yes\00", align 1
@.str.4 = private unnamed_addr constant [3 x i8] c"no\00", align 1

; Function Attrs: nofree nounwind sspstrong uwtable
define dso_local i32 @main() local_unnamed_addr #0 {
  %1 = alloca double, align 8
  %2 = alloca [501 x i8], align 16
  %3 = alloca [501 x i8], align 16
  %4 = bitcast double* %1 to i8*
  call void @llvm.lifetime.start.p0i8(i64 8, i8* nonnull %4) #4
  %5 = getelementptr inbounds [501 x i8], [501 x i8]* %2, i64 0, i64 0
  call void @llvm.lifetime.start.p0i8(i64 501, i8* nonnull %5) #4
  %6 = getelementptr inbounds [501 x i8], [501 x i8]* %3, i64 0, i64 0
  call void @llvm.lifetime.start.p0i8(i64 501, i8* nonnull %6) #4
  %7 = call i32 (i8*, ...) @__isoc99_scanf(i8* getelementptr inbounds ([4 x i8], [4 x i8]* @.str, i64 0, i64 0), double* nonnull %1)
  %8 = call i32 (i8*, ...) @__isoc99_scanf(i8* getelementptr inbounds ([5 x i8], [5 x i8]* @.str.1, i64 0, i64 0), i8* nonnull %5, i8* nonnull %6)
  %9 = call i64 @strlen(i8* noundef nonnull %5) #5
  %10 = uitofp i64 %9 to double
  %11 = call i64 @strlen(i8* noundef nonnull %6) #5
  %12 = uitofp i64 %11 to double
  %13 = fcmp une double %10, %12
  br i1 %13, label %46, label %14

14:                                               ; preds = %0
  %15 = icmp eq i64 %9, 0
  br i1 %15, label %40, label %16

16:                                               ; preds = %14, %31
  %17 = phi i64 [ %34, %31 ], [ 0, %14 ]
  %18 = phi i32 [ %33, %31 ], [ 0, %14 ]
  %19 = phi double [ %32, %31 ], [ 0.000000e+00, %14 ]
  %20 = getelementptr inbounds [501 x i8], [501 x i8]* %2, i64 0, i64 %17
  %21 = load i8, i8* %20, align 1, !tbaa !5
  switch i8 %21, label %29 [
    i8 65, label %22
    i8 84, label %22
    i8 67, label %22
    i8 71, label %22
  ]

22:                                               ; preds = %16, %16, %16, %16
  %23 = getelementptr inbounds [501 x i8], [501 x i8]* %3, i64 0, i64 %17
  %24 = load i8, i8* %23, align 1, !tbaa !5
  switch i8 %24, label %29 [
    i8 65, label %25
    i8 84, label %25
    i8 67, label %25
    i8 71, label %25
  ]

25:                                               ; preds = %22, %22, %22, %22
  %26 = icmp eq i8 %21, %24
  %27 = fadd double %19, 1.000000e+00
  %28 = select i1 %26, double %27, double %19
  br label %31

29:                                               ; preds = %22, %16
  %30 = add nsw i32 %18, 1
  br label %31

31:                                               ; preds = %25, %29
  %32 = phi double [ %19, %29 ], [ %28, %25 ]
  %33 = phi i32 [ %30, %29 ], [ %18, %25 ]
  %34 = add nuw i64 %17, 1
  %35 = trunc i64 %34 to i32
  %36 = sitofp i32 %35 to double
  %37 = fcmp olt double %36, %10
  br i1 %37, label %16, label %38, !llvm.loop !8

38:                                               ; preds = %31
  %39 = icmp sgt i32 %33, 0
  br i1 %39, label %46, label %40

40:                                               ; preds = %14, %38
  %41 = phi double [ %32, %38 ], [ 0.000000e+00, %14 ]
  %42 = fdiv double %41, %10
  %43 = load double, double* %1, align 8, !tbaa !10
  %44 = fcmp ogt double %42, %43
  %45 = select i1 %44, i8* getelementptr inbounds ([4 x i8], [4 x i8]* @.str.3, i64 0, i64 0), i8* getelementptr inbounds ([3 x i8], [3 x i8]* @.str.4, i64 0, i64 0)
  br label %46

46:                                               ; preds = %40, %38, %0
  %47 = phi i8* [ getelementptr inbounds ([6 x i8], [6 x i8]* @.str.2, i64 0, i64 0), %0 ], [ getelementptr inbounds ([6 x i8], [6 x i8]* @.str.2, i64 0, i64 0), %38 ], [ %45, %40 ]
  %48 = call i32 (i8*, ...) @printf(i8* nonnull dereferenceable(1) %47)
  call void @llvm.lifetime.end.p0i8(i64 501, i8* nonnull %6) #4
  call void @llvm.lifetime.end.p0i8(i64 501, i8* nonnull %5) #4
  call void @llvm.lifetime.end.p0i8(i64 8, i8* nonnull %4) #4
  ret i32 0
}

; Function Attrs: argmemonly mustprogress nofree nosync nounwind willreturn
declare void @llvm.lifetime.start.p0i8(i64 immarg, i8* nocapture) #1

; Function Attrs: nofree nounwind
declare noundef i32 @__isoc99_scanf(i8* nocapture noundef readonly, ...) local_unnamed_addr #2

; Function Attrs: argmemonly mustprogress nofree nounwind readonly willreturn
declare i64 @strlen(i8* nocapture) local_unnamed_addr #3

; Function Attrs: nofree nounwind
declare noundef i32 @printf(i8* nocapture noundef readonly, ...) local_unnamed_addr #2

; Function Attrs: argmemonly mustprogress nofree nosync nounwind willreturn
declare void @llvm.lifetime.end.p0i8(i64 immarg, i8* nocapture) #1


!llvm.module.flags = !{!0, !1, !2, !3}
!llvm.ident = !{!4}

!0 = !{i32 1, !"wchar_size", i32 4}
!1 = !{i32 7, !"PIC Level", i32 2}
!2 = !{i32 7, !"PIE Level", i32 2}
!3 = !{i32 7, !"uwtable", i32 1}
!4 = !{!"clang version 13.0.0"}
!5 = !{!6, !6, i64 0}
!6 = !{!"omnipotent char", !7, i64 0}
!7 = !{!"Simple C/C++ TBAA"}
!8 = distinct !{!8, !9}
!9 = !{!"llvm.loop.mustprogress"}
!10 = !{!11, !11, i64 0}
!11 = !{!"double", !6, i64 0}
